; Function Attrs: mustprogress nofree norecurse nosync nounwind willreturn memory(argmem: readwrite) uwtable
define hidden range(i32 0, 2) i32 @PyExpat_XML_SetParamEntityParsing(ptr noundef %0, i32 noundef %1) local_unnamed_addr #4 {
  %3 = icmp eq ptr %0, null
  br i1 %3, label %9, label %4

4:                                                ; preds = %2
  %5 = getelementptr inbounds nuw i8, ptr %0, i64 920
  %6 = load i32, ptr %5, align 8, !tbaa !113
  switch i32 %6, label %7 [
    i32 1, label %9
    i32 3, label %9
  ]

7:                                                ; preds = %4
  %8 = getelementptr inbounds nuw i8, ptr %0, i64 932
  store i32 %1, ptr %8, align 4, !tbaa !143
  br label %9

9:                                                ; preds = %4, %4, %2, %7
  %.0 = phi i32 [ 1, %7 ], [ 0, %2 ], [ 0, %4 ], [ 0, %4 ]
  ret i32 %.0
}